Certificate:
    Data:
        Version: 3 (0x2)
        Serial Number: 17397525059815423697 (0xf1706cdda9413ed1)
    Signature Algorithm: sha256WithRSAEncryption
        Issuer: CN=QUIC Server Root CA
        Validity
            Not Before: Jul 12 08:50:29 2018 GMT
            Not After : Jul 15 08:50:29 2018 GMT
        Subject: CN=QUIC Server Root CA
        Subject Public Key Info:
            Public Key Algorithm: rsaEncryption
                Public-Key: (2048 bit)
                Modulus:
                    00:d9:21:d7:7a:51:77:1f:9a:04:4a:e6:75:b7:39:
                    31:81:ac:51:62:79:26:2b:b1:d3:a3:f3:84:ac:c4:
                    4b:03:46:45:5f:d6:6c:59:93:44:5c:25:4c:07:96:
                    3e:37:9c:a3:6a:b9:1d:fd:10:43:df:03:eb:bb:d5:
                    cf:52:88:4d:f1:a3:e2:81:e2:d1:fd:0e:10:88:eb:
                    05:68:34:d3:c7:b9:2a:47:17:62:f7:a2:68:3f:af:
                    f8:08:4f:df:9d:89:e9:da:a6:a4:6d:aa:96:5e:76:
                    81:d3:7a:38:92:f0:f1:34:77:68:93:b1:ae:c8:13:
                    0c:8e:a0:cc:50:99:c2:6a:20:e3:70:02:21:7f:ef:
                    1f:f3:a9:75:df:88:cf:00:f7:55:5e:fb:c2:84:26:
                    5d:a6:e1:dc:8a:54:c4:a7:c7:ba:bd:3a:d9:65:84:
                    72:9c:d8:52:4d:bc:22:7c:23:e2:bb:5a:04:f5:71:
                    53:38:16:ab:98:dc:dc:cc:5d:48:ab:92:5d:60:d0:
                    7c:93:0d:59:d4:0a:0b:de:d7:e0:46:d6:9e:4e:12:
                    fb:4a:c9:fc:fe:7a:8c:65:11:9b:a8:44:8a:a8:9a:
                    ca:8c:e8:bf:af:cc:03:5a:fc:42:1b:72:db:61:7d:
                    46:05:44:1e:33:e2:70:2c:49:12:5a:b4:03:e5:11:
                    36:f3
                Exponent: 65537 (0x10001)
        X509v3 extensions:
            X509v3 Basic Constraints: critical
                CA:TRUE
            X509v3 Subject Key Identifier: 
                DB:16:77:02:BB:C6:72:00:15:57:56:5C:13:AA:BB:2F:6E:7A:0C:B5
            X509v3 Key Usage: critical
                Certificate Sign, CRL Sign
    Signature Algorithm: sha256WithRSAEncryption
         51:44:79:67:a4:48:96:26:ec:46:2e:a4:b5:9c:bb:fd:d6:7b:
         6a:51:53:78:41:bd:f9:8e:13:11:b1:c2:af:a7:0b:bc:b9:67:
         e5:9b:25:6d:41:c6:6a:fe:ce:ae:a7:7d:fe:06:bc:d3:9c:27:
         04:b0:6d:47:2e:60:58:a0:29:cd:ec:c3:4c:3d:de:1f:3f:1f:
         60:a7:6d:68:d7:7e:b9:00:3f:c8:ef:3d:90:f3:8e:e8:19:0c:
         19:ad:70:12:b3:8d:6a:d9:6f:20:74:1e:16:02:60:f4:30:00:
         79:d1:dc:f1:98:2a:be:ac:a6:7a:67:98:b8:81:0c:1d:46:f0:
         2d:bb:d9:8e:45:07:6a:09:8e:14:83:71:c3:05:6c:fd:ab:93:
         78:1a:2a:7d:d1:fa:b6:30:e2:e7:3c:69:ed:2e:c1:fc:a3:54:
         a9:8b:cd:df:ce:25:6a:55:24:99:91:84:70:66:5b:bc:41:37:
         3a:89:e2:39:1d:8a:2c:25:c0:4c:34:6b:42:5d:cb:98:48:75:
         f8:83:33:53:e1:b5:4c:3e:ea:27:cf:39:ab:af:ec:17:2e:73:
         65:d2:56:be:ea:89:db:40:72:2c:fc:00:47:0f:65:a3:4a:d9:
         f6:2a:75:55:34:49:cb:43:f3:7d:8f:c6:ca:46:d2:92:30:1d:
         d4:af:bb:f5
-----BEGIN CERTIFICATE-----
MIIDATCCAemgAwIBAgIJAPFwbN2pQT7RMA0GCSqGSIb3DQEBCwUAMB4xHDAaBgNV
BAMME1FVSUMgU2VydmVyIFJvb3QgQ0EwHhcNMTgwNzEyMDg1MDI5WhcNMTgwNzE1
MDg1MDI5WjAeMRwwGgYDVQQDDBNRVUlDIFNlcnZlciBSb290IENBMIIBIjANBgkq
hkiG9w0BAQEFAAOCAQ8AMIIBCgKCAQEA2SHXelF3H5oESuZ1tzkxgaxRYnkmK7HT
o/OErMRLA0ZFX9ZsWZNEXCVMB5Y+N5yjarkd/RBD3wPru9XPUohN8aPigeLR/Q4Q
iOsFaDTTx7kqRxdi96JoP6/4CE/fnYnp2qakbaqWXnaB03o4kvDxNHdok7GuyBMM
jqDMUJnCaiDjcAIhf+8f86l134jPAPdVXvvChCZdpuHcilTEp8e6vTrZZYRynNhS
TbwifCPiu1oE9XFTOBarmNzczF1Iq5JdYNB8kw1Z1AoL3tfgRtaeThL7Ssn8/nqM
ZRGbqESKqJrKjOi/r8wDWvxCG3LbYX1GBUQeM+JwLEkSWrQD5RE28wIDAQABo0Iw
QDAPBgNVHRMBAf8EBTADAQH/MB0GA1UdDgQWBBTbFncCu8ZyABVXVlwTqrsvbnoM
tTAOBgNVHQ8BAf8EBAMCAQYwDQYJKoZIhvcNAQELBQADggEBAFFEeWekSJYm7EYu
pLWcu/3We2pRU3hBvfmOExGxwq+nC7y5Z+WbJW1Bxmr+zq6nff4GvNOcJwSwbUcu
YFigKc3sw0w93h8/H2CnbWjXfrkAP8jvPZDzjugZDBmtcBKzjWrZbyB0HhYCYPQw
AHnR3PGYKr6spnpnmLiBDB1G8C272Y5FB2oJjhSDccMFbP2rk3gaKn3R+rYw4uc8
ae0uwfyjVKmLzd/OJWpVJJmRhHBmW7xBNzqJ4jkdiiwlwEw0a0Jdy5hIdfiDM1Ph
tUw+6ifPOauv7Bcuc2XSVr7qidtAciz8AEcPZaNK2fYqdVU0SctD832PxspG0pIw
HdSvu/U=
-----END CERTIFICATE-----
