Certificate:
    Data:
        Version: 3 (0x2)
        Serial Number: 1 (0x1)
    Signature Algorithm: sha256WithRSAEncryption
        Issuer: CN=QUIC Server Root CA
        Validity
            Not Before: Jul 12 08:50:30 2018 GMT
            Not After : Jul 15 08:50:30 2018 GMT
        Subject: C=US, ST=California, L=Mountain View, O=QUIC Server, CN=127.0.0.1
        Subject Public Key Info:
            Public Key Algorithm: rsaEncryption
                Public-Key: (2048 bit)
                Modulus:
                    00:f9:9d:9e:60:d6:4f:d3:7f:2a:41:ac:64:c1:35:
                    af:28:f9:a1:d4:8f:be:d1:7e:c5:8b:e9:ab:0c:47:
                    fa:ec:99:d0:e9:1d:a2:c5:4d:f0:15:81:ce:ef:be:
                    48:7d:a0:19:53:5b:41:c5:d6:4e:50:7e:cd:14:80:
                    2f:58:29:e7:32:70:ad:bb:1e:3f:c0:54:21:a5:55:
                    32:25:d7:43:11:9f:f0:6b:ee:26:d2:2f:02:bb:58:
                    41:2b:93:97:f8:a2:db:03:c2:8c:5a:bd:70:de:e2:
                    cf:eb:cb:9e:a6:95:82:00:66:f4:e7:37:79:7c:c8:
                    5c:bd:93:cd:a2:41:2b:9c:a1:cd:42:54:d4:4e:81:
                    c5:7b:ae:65:b6:48:65:ca:94:47:ed:e1:47:68:f5:
                    8f:47:de:83:5d:61:ca:47:94:cb:08:e6:d4:56:44:
                    b5:64:c0:25:76:ef:69:24:8e:46:ef:50:9b:ce:a5:
                    c4:af:74:fd:f2:e8:e0:64:fe:3e:ad:fc:f5:26:fc:
                    62:9f:23:be:36:8e:8c:a0:78:d9:68:41:ef:3e:a2:
                    98:80:19:c7:f0:05:ae:ad:86:52:1b:3c:87:75:60:
                    70:c7:36:23:87:e8:69:e2:b0:70:f2:3b:81:88:5a:
                    2a:3e:e5:32:1e:b0:df:fc:9d:5f:ec:08:7d:56:a3:
                    42:03
                Exponent: 65537 (0x10001)
        X509v3 extensions:
            X509v3 Basic Constraints: critical
                CA:FALSE
            X509v3 Subject Key Identifier: 
                02:DD:1B:A5:06:13:EA:AD:04:02:25:20:03:D0:9E:9B:CA:7C:7D:D7
            X509v3 Authority Key Identifier: 
                keyid:DB:16:77:02:BB:C6:72:00:15:57:56:5C:13:AA:BB:2F:6E:7A:0C:B5

            X509v3 Extended Key Usage: 
                TLS Web Server Authentication, TLS Web Client Authentication
            X509v3 Subject Alternative Name: 
                DNS:localhost, DNS:mail.example.org, DNS:mail.example.com, IP Address:127.0.0.1
    Signature Algorithm: sha256WithRSAEncryption
         09:18:30:5d:74:df:2e:b3:56:fa:8c:1a:c7:65:fe:81:80:fc:
         6b:1f:56:35:b9:fd:fb:03:89:49:09:fd:20:a3:87:ae:25:68:
         f2:f2:c1:f2:0f:da:fd:9f:9d:a2:8e:63:56:09:81:16:e0:17:
         86:9e:44:de:39:84:1a:aa:3a:55:91:34:81:ad:59:ec:66:f7:
         20:dc:19:7a:c1:19:64:a0:9e:5e:97:06:2d:c7:98:67:f9:d5:
         39:9b:6a:02:4c:3d:1b:fa:47:d3:9d:a7:ac:e8:db:ba:4f:0f:
         d7:ae:e5:90:18:f3:6a:28:c6:78:01:cc:0f:04:92:e4:b9:b5:
         51:45:63:dd:45:89:c6:8d:95:73:53:3c:c5:97:9b:56:55:89:
         bb:a0:c3:28:de:ef:bd:ec:75:e0:90:63:24:31:64:bd:76:fa:
         e5:61:50:77:23:43:91:c2:ce:12:81:b7:24:cd:5c:a8:5c:4a:
         e5:b7:42:84:9b:35:af:61:8c:57:de:3d:9c:de:66:69:fb:e4:
         fd:e0:54:72:8e:f2:e3:37:05:e8:64:fa:3a:44:f8:0c:1c:54:
         d2:15:e0:df:85:30:4f:5d:0c:47:40:89:33:b1:c0:88:82:66:
         65:b1:f0:62:6f:fb:be:e3:75:a3:4c:21:a1:99:92:0e:c6:48:
         1b:62:44:b6
-----BEGIN CERTIFICATE-----
MIIDrjCCApagAwIBAgIBATANBgkqhkiG9w0BAQsFADAeMRwwGgYDVQQDDBNRVUlD
IFNlcnZlciBSb290IENBMB4XDTE4MDcxMjA4NTAzMFoXDTE4MDcxNTA4NTAzMFow
ZDELMAkGA1UEBhMCVVMxEzARBgNVBAgMCkNhbGlmb3JuaWExFjAUBgNVBAcMDU1v
dW50YWluIFZpZXcxFDASBgNVBAoMC1FVSUMgU2VydmVyMRIwEAYDVQQDDAkxMjcu
MC4wLjEwggEiMA0GCSqGSIb3DQEBAQUAA4IBDwAwggEKAoIBAQD5nZ5g1k/TfypB
rGTBNa8o+aHUj77RfsWL6asMR/rsmdDpHaLFTfAVgc7vvkh9oBlTW0HF1k5Qfs0U
gC9YKecycK27Hj/AVCGlVTIl10MRn/Br7ibSLwK7WEErk5f4otsDwoxavXDe4s/r
y56mlYIAZvTnN3l8yFy9k82iQSucoc1CVNROgcV7rmW2SGXKlEft4Udo9Y9H3oNd
YcpHlMsI5tRWRLVkwCV272kkjkbvUJvOpcSvdP3y6OBk/j6t/PUm/GKfI742joyg
eNloQe8+opiAGcfwBa6thlIbPId1YHDHNiOH6GnisHDyO4GIWio+5TIesN/8nV/s
CH1Wo0IDAgMBAAGjgbAwga0wDAYDVR0TAQH/BAIwADAdBgNVHQ4EFgQUAt0bpQYT
6q0EAiUgA9Cem8p8fdcwHwYDVR0jBBgwFoAU2xZ3ArvGcgAVV1ZcE6q7L256DLUw
HQYDVR0lBBYwFAYIKwYBBQUHAwEGCCsGAQUFBwMCMD4GA1UdEQQ3MDWCCWxvY2Fs
aG9zdIIQbWFpbC5leGFtcGxlLm9yZ4IQbWFpbC5leGFtcGxlLmNvbYcEfwAAATAN
BgkqhkiG9w0BAQsFAAOCAQEACRgwXXTfLrNW+owax2X+gYD8ax9WNbn9+wOJSQn9
IKOHriVo8vLB8g/a/Z+doo5jVgmBFuAXhp5E3jmEGqo6VZE0ga1Z7Gb3INwZesEZ
ZKCeXpcGLceYZ/nVOZtqAkw9G/pH052nrOjbuk8P167lkBjzaijGeAHMDwSS5Lm1
UUVj3UWJxo2Vc1M8xZebVlWJu6DDKN7vvex14JBjJDFkvXb65WFQdyNDkcLOEoG3
JM1cqFxK5bdChJs1r2GMV949nN5mafvk/eBUco7y4zcF6GT6OkT4DBxU0hXg34Uw
T10MR0CJM7HAiIJmZbHwYm/7vuN1o0whoZmSDsZIG2JEtg==
-----END CERTIFICATE-----
