Certificate:
    Data:
        Version: 3 (0x2)
        Serial Number: 15218464711447578094 (0xd332d90630a685ee)
    Signature Algorithm: sha256WithRSAEncryption
        Issuer: CN=QUIC Server Root CA
        Validity
            Not Before: Jul 21 08:34:06 2018 GMT
            Not After : Jul 24 08:34:06 2018 GMT
        Subject: CN=QUIC Server Root CA
        Subject Public Key Info:
            Public Key Algorithm: rsaEncryption
                Public-Key: (2048 bit)
                Modulus:
                    00:b8:94:1b:8e:fe:69:81:22:0c:8d:10:dd:84:46:
                    7b:e6:b8:dd:92:a4:5b:fe:fb:62:b4:78:8e:60:72:
                    62:50:74:84:44:87:36:c9:b4:71:f0:74:8b:7e:89:
                    ff:3e:b7:d6:a9:88:64:c4:a6:ba:2a:35:d0:83:cb:
                    21:66:8a:64:57:7d:b8:26:a0:41:07:a0:c3:45:74:
                    4c:76:95:b6:df:32:8c:66:2e:c4:fe:7e:6b:a2:01:
                    45:45:10:3f:d1:34:b8:05:af:e6:5b:30:09:46:b8:
                    a4:f5:8e:e3:93:73:c3:74:5b:e9:35:d8:4c:78:f7:
                    53:a5:b5:55:35:68:48:ae:2d:4e:99:48:4b:a3:1e:
                    57:1b:f7:dd:20:87:87:fd:64:81:aa:2d:6c:43:91:
                    54:28:40:a4:b4:15:14:1c:ec:67:eb:fe:9c:38:b0:
                    ad:b3:00:37:9a:84:44:b6:68:2c:d0:be:65:2a:d9:
                    6a:03:a5:d9:59:64:60:8c:f1:c7:7a:68:c8:9d:44:
                    52:71:d7:e9:50:85:8a:a2:f9:22:a7:9e:61:fa:c0:
                    6f:52:3e:f9:47:eb:1d:38:a0:24:ee:f6:4f:58:3d:
                    77:24:8e:26:7c:80:97:e7:7a:6c:63:c9:59:ce:0c:
                    fb:f9:87:af:28:51:79:cb:5d:1f:ab:54:2a:4a:aa:
                    75:e3
                Exponent: 65537 (0x10001)
        X509v3 extensions:
            X509v3 Basic Constraints: critical
                CA:TRUE
            X509v3 Subject Key Identifier: 
                60:2C:CA:1F:E5:30:56:AF:9A:CE:AF:8A:C2:65:CF:49:99:A2:4C:03
            X509v3 Key Usage: critical
                Certificate Sign, CRL Sign
    Signature Algorithm: sha256WithRSAEncryption
         86:7f:43:94:ed:4d:d9:51:1a:f3:cb:83:9b:45:ef:c6:15:d8:
         f9:7e:d9:a5:27:cd:98:3e:37:a4:eb:eb:18:48:25:85:42:a4:
         f0:79:4b:7a:65:47:a2:5c:3c:c7:a9:e5:bc:13:f6:d2:ee:87:
         df:3d:89:6d:85:b4:cf:56:b9:03:ac:4b:4e:8d:d4:d9:d0:63:
         1f:53:f5:d6:72:01:b5:13:4e:4a:e8:a2:2a:52:6d:af:65:84:
         62:1b:11:6f:88:78:87:89:1e:52:5b:26:9e:b5:30:62:fd:f1:
         02:e4:eb:e6:18:c3:49:c1:6b:02:b7:ae:f3:2a:b9:6b:1d:a7:
         40:67:79:c8:c2:c0:45:22:46:1a:70:38:41:06:a8:0f:07:98:
         e9:25:4f:d0:0c:bd:c6:84:2d:66:dc:08:00:64:78:bf:0a:19:
         7b:cf:a2:66:c3:46:49:79:88:1c:0a:47:ac:58:7f:0c:e7:1f:
         a0:1b:41:81:1d:ec:9c:03:8c:ce:b9:62:96:0b:97:20:43:cf:
         7d:d5:5f:c4:d0:96:a9:7a:25:5b:e5:29:5a:e7:3b:47:07:c2:
         02:b9:a2:f5:ed:35:9e:7b:51:a1:42:bf:b9:24:57:cb:d9:88:
         22:0d:35:77:96:27:e3:cb:72:76:4d:2e:80:47:79:5e:0b:9f:
         fc:93:f1:93
-----BEGIN CERTIFICATE-----
MIIDATCCAemgAwIBAgIJANMy2QYwpoXuMA0GCSqGSIb3DQEBCwUAMB4xHDAaBgNV
BAMME1FVSUMgU2VydmVyIFJvb3QgQ0EwHhcNMTgwNzIxMDgzNDA2WhcNMTgwNzI0
MDgzNDA2WjAeMRwwGgYDVQQDDBNRVUlDIFNlcnZlciBSb290IENBMIIBIjANBgkq
hkiG9w0BAQEFAAOCAQ8AMIIBCgKCAQEAuJQbjv5pgSIMjRDdhEZ75rjdkqRb/vti
tHiOYHJiUHSERIc2ybRx8HSLfon/PrfWqYhkxKa6KjXQg8shZopkV324JqBBB6DD
RXRMdpW23zKMZi7E/n5rogFFRRA/0TS4Ba/mWzAJRrik9Y7jk3PDdFvpNdhMePdT
pbVVNWhIri1OmUhLox5XG/fdIIeH/WSBqi1sQ5FUKECktBUUHOxn6/6cOLCtswA3
moREtmgs0L5lKtlqA6XZWWRgjPHHemjInURScdfpUIWKovkip55h+sBvUj75R+sd
OKAk7vZPWD13JI4mfICX53psY8lZzgz7+YevKFF5y10fq1QqSqp14wIDAQABo0Iw
QDAPBgNVHRMBAf8EBTADAQH/MB0GA1UdDgQWBBRgLMof5TBWr5rOr4rCZc9JmaJM
AzAOBgNVHQ8BAf8EBAMCAQYwDQYJKoZIhvcNAQELBQADggEBAIZ/Q5TtTdlRGvPL
g5tF78YV2Pl+2aUnzZg+N6Tr6xhIJYVCpPB5S3plR6JcPMep5bwT9tLuh989iW2F
tM9WuQOsS06N1NnQYx9T9dZyAbUTTkrooipSba9lhGIbEW+IeIeJHlJbJp61MGL9
8QLk6+YYw0nBawK3rvMquWsdp0BnecjCwEUiRhpwOEEGqA8HmOklT9AMvcaELWbc
CABkeL8KGXvPombDRkl5iBwKR6xYfwznH6AbQYEd7JwDjM65YpYLlyBDz33VX8TQ
lql6JVvlKVrnO0cHwgK5ovXtNZ57UaFCv7kkV8vZiCINNXeWJ+PLcnZNLoBHeV4L
n/yT8ZM=
-----END CERTIFICATE-----
