Certificate:
    Data:
        Version: 3 (0x2)
        Serial Number: 1 (0x1)
    Signature Algorithm: sha256WithRSAEncryption
        Issuer: CN=QUIC Server Root CA
        Validity
            Not Before: Jul 21 08:34:06 2018 GMT
            Not After : Jul 24 08:34:06 2018 GMT
        Subject: C=US, ST=California, L=Mountain View, O=QUIC Server, CN=127.0.0.1
        Subject Public Key Info:
            Public Key Algorithm: rsaEncryption
                Public-Key: (2048 bit)
                Modulus:
                    00:c3:e7:21:86:9e:5a:6b:00:d7:49:ad:dc:36:e6:
                    8d:31:7e:ef:ed:4d:d6:6f:ea:48:f4:9d:88:7c:95:
                    c3:35:ea:ae:bc:b9:2d:ce:70:28:5e:b2:a5:a6:5b:
                    b8:2a:53:b1:03:31:59:29:f3:6a:3a:17:85:e1:5e:
                    94:60:ca:b6:ba:71:f6:c6:eb:a5:83:ff:dd:b1:d6:
                    98:16:11:10:2b:16:df:ad:03:45:28:fc:25:be:8d:
                    41:6d:90:06:95:b2:f9:43:3b:d9:a6:ee:3a:ba:95:
                    6d:35:91:f6:c5:18:f3:ba:d8:df:3e:1a:e6:68:18:
                    8e:16:07:c4:42:65:ee:ec:11:c2:72:28:30:8b:1d:
                    27:0f:a4:22:71:fa:05:e7:bd:dc:90:2a:80:ab:a5:
                    68:03:e8:b0:98:63:ba:21:b0:61:86:91:4d:7e:f1:
                    44:ba:72:67:25:bd:ec:fa:ee:16:7d:7b:db:28:30:
                    6d:71:ef:b3:62:c1:72:bc:62:9b:40:0f:aa:cc:c2:
                    be:ad:9b:b4:07:83:07:73:97:0f:5a:7b:f8:b0:d9:
                    01:ad:dc:7b:6c:bb:76:b6:5f:87:11:04:4b:23:92:
                    4b:b5:33:5e:f5:6d:9a:8a:1e:be:3a:0e:4a:c8:2b:
                    74:7f:5c:4a:a5:e0:5b:46:7f:6a:74:77:4a:54:82:
                    d1:e9
                Exponent: 65537 (0x10001)
        X509v3 extensions:
            X509v3 Basic Constraints: critical
                CA:FALSE
            X509v3 Subject Key Identifier: 
                77:E7:72:11:57:B6:47:75:32:4F:1E:54:02:72:B9:B0:5B:BC:15:E0
            X509v3 Authority Key Identifier: 
                keyid:60:2C:CA:1F:E5:30:56:AF:9A:CE:AF:8A:C2:65:CF:49:99:A2:4C:03

            X509v3 Extended Key Usage: 
                TLS Web Server Authentication, TLS Web Client Authentication
            X509v3 Subject Alternative Name: 
                DNS:pablo.io, DNS:mail.example.org, DNS:mail.example.com, IP Address:127.0.0.1, IP Address:10.0.0.2, IP Address:193.144.201.4
    Signature Algorithm: sha256WithRSAEncryption
         4e:f4:69:e3:b7:90:54:21:20:7c:d0:cc:9e:c5:4c:78:47:15:
         7e:fc:9a:e5:5b:28:bf:d8:b0:2d:5c:1f:98:d4:cc:7a:70:e7:
         0a:e1:5e:06:90:88:e5:31:26:80:18:45:fe:5c:c2:99:18:68:
         08:86:a7:7b:98:62:79:7f:6a:e2:9e:dc:4e:4c:55:e4:74:d1:
         b2:63:21:ba:23:7e:7f:06:0e:a7:03:bd:c8:aa:77:ae:29:a6:
         12:e1:c2:c8:c1:82:23:81:6e:7e:c6:16:33:6f:38:9c:c3:5f:
         74:b2:6f:2b:b9:70:e4:84:90:a3:31:37:64:83:52:7f:58:bb:
         f6:dc:de:b5:50:29:57:02:82:d5:97:6c:63:f1:12:61:5b:6f:
         78:7b:21:a1:e8:1d:a0:c5:7b:e4:45:20:bd:1f:58:64:1b:c0:
         10:47:a6:80:58:85:d0:d1:64:8b:b6:ea:dc:4f:4f:5f:c3:ae:
         2b:32:0c:d0:81:69:6a:16:34:e7:09:4e:fe:8f:de:04:fd:85:
         4a:2e:c4:4f:bc:27:be:3c:d1:aa:a6:7f:cd:37:d1:99:97:a9:
         cf:e9:21:b3:7d:ea:0f:1b:e6:fb:12:1e:79:41:a9:0a:c6:38:
         ea:f2:ba:9d:08:23:9f:6e:26:dc:ff:e9:e6:cf:6e:87:e0:3c:
         2a:17:02:e8
-----BEGIN CERTIFICATE-----
MIIDuTCCAqGgAwIBAgIBATANBgkqhkiG9w0BAQsFADAeMRwwGgYDVQQDDBNRVUlD
IFNlcnZlciBSb290IENBMB4XDTE4MDcyMTA4MzQwNloXDTE4MDcyNDA4MzQwNlow
ZDELMAkGA1UEBhMCVVMxEzARBgNVBAgMCkNhbGlmb3JuaWExFjAUBgNVBAcMDU1v
dW50YWluIFZpZXcxFDASBgNVBAoMC1FVSUMgU2VydmVyMRIwEAYDVQQDDAkxMjcu
MC4wLjEwggEiMA0GCSqGSIb3DQEBAQUAA4IBDwAwggEKAoIBAQDD5yGGnlprANdJ
rdw25o0xfu/tTdZv6kj0nYh8lcM16q68uS3OcChesqWmW7gqU7EDMVkp82o6F4Xh
XpRgyra6cfbG66WD/92x1pgWERArFt+tA0Uo/CW+jUFtkAaVsvlDO9mm7jq6lW01
kfbFGPO62N8+GuZoGI4WB8RCZe7sEcJyKDCLHScPpCJx+gXnvdyQKoCrpWgD6LCY
Y7ohsGGGkU1+8US6cmclvez67hZ9e9soMG1x77NiwXK8YptAD6rMwr6tm7QHgwdz
lw9ae/iw2QGt3Htsu3a2X4cRBEsjkku1M171bZqKHr46DkrIK3R/XEql4FtGf2p0
d0pUgtHpAgMBAAGjgbswgbgwDAYDVR0TAQH/BAIwADAdBgNVHQ4EFgQUd+dyEVe2
R3UyTx5UAnK5sFu8FeAwHwYDVR0jBBgwFoAUYCzKH+UwVq+azq+KwmXPSZmiTAMw
HQYDVR0lBBYwFAYIKwYBBQUHAwEGCCsGAQUFBwMCMEkGA1UdEQRCMECCCHBhYmxv
LmlvghBtYWlsLmV4YW1wbGUub3JnghBtYWlsLmV4YW1wbGUuY29thwR/AAABhwQK
AAAChwTBkMkEMA0GCSqGSIb3DQEBCwUAA4IBAQBO9Gnjt5BUISB80MyexUx4RxV+
/JrlWyi/2LAtXB+Y1Mx6cOcK4V4GkIjlMSaAGEX+XMKZGGgIhqd7mGJ5f2rintxO
TFXkdNGyYyG6I35/Bg6nA73IqneuKaYS4cLIwYIjgW5+xhYzbzicw190sm8ruXDk
hJCjMTdkg1J/WLv23N61UClXAoLVl2xj8RJhW294eyGh6B2gxXvkRSC9H1hkG8AQ
R6aAWIXQ0WSLturcT09fw64rMgzQgWlqFjTnCU7+j94E/YVKLsRPvCe+PNGqpn/N
N9GZl6nP6SGzfeoPG+b7Eh55QakKxjjq8rqdCCOfbibc/+nmz26H4DwqFwLo
-----END CERTIFICATE-----
