Certificate:
    Data:
        Version: 3 (0x2)
        Serial Number: 1 (0x1)
    Signature Algorithm: sha256WithRSAEncryption
        Issuer: CN=QUIC Server Root CA
        Validity
            Not Before: Feb 14 14:34:56 2018 GMT
            Not After : Feb 17 14:34:56 2018 GMT
        Subject: C=US, ST=California, L=Mountain View, O=QUIC Server, CN=127.0.0.1
        Subject Public Key Info:
            Public Key Algorithm: rsaEncryption
                Public-Key: (2048 bit)
                Modulus:
                    00:d4:b5:00:26:cf:71:e6:f0:7d:ed:08:b2:6e:26:
                    6c:ee:e3:99:61:56:79:67:55:ba:40:9d:a6:9d:2c:
                    1b:32:9c:7e:08:02:b8:c1:0a:8b:71:64:e2:5d:26:
                    58:eb:ca:28:ce:dd:0f:47:4c:11:e7:5b:c4:e9:88:
                    02:70:19:cf:91:52:9f:6f:e8:f9:ca:02:6a:42:79:
                    58:31:df:9c:7c:c4:a9:72:fd:fc:36:46:b6:4d:c4:
                    fd:51:5c:09:b5:08:45:5f:63:83:17:57:e7:ae:a1:
                    85:e2:a7:ef:a6:e0:64:7c:5c:72:fe:c6:37:64:cc:
                    e6:cb:8e:0c:3a:c1:3c:ef:a8:96:9a:b0:57:f0:08:
                    39:40:0b:f5:6e:02:64:08:84:81:bd:ee:c8:02:e0:
                    34:f9:6c:db:92:65:e5:56:98:fd:16:b9:a0:ea:2b:
                    ff:df:1e:0f:b1:84:33:f9:e4:ea:31:45:47:b7:e4:
                    30:f0:b6:04:bb:3d:e2:86:99:d6:34:2a:32:58:b4:
                    55:c8:10:82:8d:f1:f8:f2:b7:d6:e4:c0:9f:04:a4:
                    51:b2:4f:ed:a6:e7:3e:ef:27:9a:ef:ec:9f:7e:87:
                    a2:86:a3:d3:b0:d5:fc:15:d3:02:b2:e2:b6:2a:9d:
                    e2:fc:13:5b:7a:96:b6:44:45:fe:d2:ae:3a:cf:62:
                    94:c3
                Exponent: 65537 (0x10001)
        X509v3 extensions:
            X509v3 Basic Constraints: critical
                CA:FALSE
            X509v3 Subject Key Identifier: 
                91:84:76:B4:F8:82:20:F2:00:25:83:F7:C7:8E:F7:84:C2:75:3B:5A
            X509v3 Authority Key Identifier: 
                keyid:8D:49:16:0D:B6:03:E9:67:3C:A1:D3:0C:BA:EE:C6:5C:65:1C:33:B3

            X509v3 Extended Key Usage: 
                TLS Web Server Authentication, TLS Web Client Authentication
            X509v3 Subject Alternative Name: 
                DNS:localhost, DNS:mail.example.org, DNS:mail.example.com, IP Address:127.0.0.1
    Signature Algorithm: sha256WithRSAEncryption
         7a:69:9f:81:c5:ae:3e:7b:55:c3:96:73:0d:1e:96:76:21:6d:
         83:81:1f:37:ce:db:a4:35:35:99:0b:79:10:4a:ca:1d:d9:a2:
         23:c4:ed:52:59:37:a2:fd:ee:63:93:82:69:ef:2c:a5:ad:17:
         1e:02:fa:95:95:94:f5:83:48:b3:55:11:6d:2b:24:96:70:3b:
         34:51:e3:ee:1e:29:f2:67:b2:54:11:df:fe:57:d3:33:00:22:
         fb:60:64:69:84:b7:31:61:a4:89:10:83:c3:77:50:a2:bd:6e:
         17:64:08:08:0d:73:56:ab:61:ea:0e:ab:9e:f1:90:5e:3b:14:
         3f:1e:dc:cc:74:3c:c5:0c:09:1a:15:e9:60:22:25:9a:3d:ed:
         e6:ae:e1:12:0b:43:29:a7:38:e5:88:d1:a8:12:18:f0:82:c3:
         42:db:8e:ea:b6:e0:c9:6b:20:bf:a3:59:2a:35:ed:c6:bd:e1:
         8f:4c:84:f8:4f:4a:be:5f:fa:ae:ed:6e:41:b8:77:fb:8d:87:
         f7:ec:59:d3:9c:9d:07:eb:30:5c:eb:48:05:42:f7:5c:d2:06:
         85:84:0d:2c:9e:b1:cb:4e:05:cf:2b:31:35:28:88:3c:f2:af:
         ff:14:9f:a5:73:53:4e:47:91:77:cd:a1:a9:64:03:46:39:b2:
         c0:f6:26:11
-----BEGIN CERTIFICATE-----
MIIDrjCCApagAwIBAgIBATANBgkqhkiG9w0BAQsFADAeMRwwGgYDVQQDDBNRVUlD
IFNlcnZlciBSb290IENBMB4XDTE4MDIxNDE0MzQ1NloXDTE4MDIxNzE0MzQ1Nlow
ZDELMAkGA1UEBhMCVVMxEzARBgNVBAgMCkNhbGlmb3JuaWExFjAUBgNVBAcMDU1v
dW50YWluIFZpZXcxFDASBgNVBAoMC1FVSUMgU2VydmVyMRIwEAYDVQQDDAkxMjcu
MC4wLjEwggEiMA0GCSqGSIb3DQEBAQUAA4IBDwAwggEKAoIBAQDUtQAmz3Hm8H3t
CLJuJmzu45lhVnlnVbpAnaadLBsynH4IArjBCotxZOJdJljryijO3Q9HTBHnW8Tp
iAJwGc+RUp9v6PnKAmpCeVgx35x8xKly/fw2RrZNxP1RXAm1CEVfY4MXV+euoYXi
p++m4GR8XHL+xjdkzObLjgw6wTzvqJaasFfwCDlAC/VuAmQIhIG97sgC4DT5bNuS
ZeVWmP0WuaDqK//fHg+xhDP55OoxRUe35DDwtgS7PeKGmdY0KjJYtFXIEIKN8fjy
t9bkwJ8EpFGyT+2m5z7vJ5rv7J9+h6KGo9Ow1fwV0wKy4rYqneL8E1t6lrZERf7S
rjrPYpTDAgMBAAGjgbAwga0wDAYDVR0TAQH/BAIwADAdBgNVHQ4EFgQUkYR2tPiC
IPIAJYP3x473hMJ1O1owHwYDVR0jBBgwFoAUjUkWDbYD6Wc8odMMuu7GXGUcM7Mw
HQYDVR0lBBYwFAYIKwYBBQUHAwEGCCsGAQUFBwMCMD4GA1UdEQQ3MDWCCWxvY2Fs
aG9zdIIQbWFpbC5leGFtcGxlLm9yZ4IQbWFpbC5leGFtcGxlLmNvbYcEfwAAATAN
BgkqhkiG9w0BAQsFAAOCAQEAemmfgcWuPntVw5ZzDR6WdiFtg4EfN87bpDU1mQt5
EErKHdmiI8TtUlk3ov3uY5OCae8spa0XHgL6lZWU9YNIs1URbSsklnA7NFHj7h4p
8meyVBHf/lfTMwAi+2BkaYS3MWGkiRCDw3dQor1uF2QICA1zVqth6g6rnvGQXjsU
Px7czHQ8xQwJGhXpYCIlmj3t5q7hEgtDKac45YjRqBIY8ILDQtuO6rbgyWsgv6NZ
KjXtxr3hj0yE+E9Kvl/6ru1uQbh3+42H9+xZ05ydB+swXOtIBUL3XNIGhYQNLJ6x
y04FzysxNSiIPPKv/xSfpXNTTkeRd82hqWQDRjmywPYmEQ==
-----END CERTIFICATE-----
